target datalayout = "e-m:e-p270:32:32-p271:32:32-p272:64:64-i64:64-i128:128-f80:128-n8:16:32:64-S128"
target triple = "x86_64-pc-linux-gnu"

%struct.DdManager = type { %struct.DdNode, ptr, ptr, ptr, ptr, ptr, ptr, ptr, i32, i32, double, double, double, i32, i32, i32, i32, i32, i32, ptr, ptr, %struct.DdSubtable, i32, i32, i32, i32, i32, i32, i32, double, i32, i32, i32, ptr, i64, double, i32, ptr, ptr, ptr, ptr, ptr, ptr, ptr, i32, ptr, ptr, ptr, ptr, ptr, ptr, i32, i32, i32, double, i32, i32, i32, i32, double, double, i32, i32, i32, i32, i32, i32, i32, i32, i32, ptr, ptr, i32, i32, i32, i32, i32, i32, ptr, ptr, ptr, ptr, ptr, ptr, ptr, ptr, i32, i64, i64, i64, i32, i64, i64, double, double, double, double, double, double, i32, ptr, ptr, i64 }
%struct.DdNode = type { i32, i32, ptr, %union.anon, i64 }
%union.anon = type { %struct.DdChildren }
%struct.DdChildren = type { ptr, ptr }
%struct.DdSubtable = type { ptr, i32, i32, i32, i32, i32, i32, i32, i32, i32, i32, i32 }
%struct.DdGen = type { ptr, i32, i32, %union.anon.0, %struct.anon.3, ptr }
%union.anon.0 = type { %struct.anon }
%struct.anon = type { ptr, double }
%struct.anon.3 = type { i32, ptr }
%struct.anon.1 = type { ptr, ptr }

; Function Attrs: nounwind uwtable
define i32 @Cudd_BddToCubeArray(ptr noundef %0, ptr noundef %1, ptr noundef %2) #0 {
  %4 = alloca i32, align 4
  %5 = alloca ptr, align 8
  %6 = alloca ptr, align 8
  %7 = alloca ptr, align 8
  %8 = alloca ptr, align 8
  %9 = alloca ptr, align 8
  %10 = alloca ptr, align 8
  %11 = alloca i32, align 4
  %12 = alloca i32, align 4
  %13 = alloca ptr, align 8
  %14 = alloca i32, align 4
  store ptr %0, ptr %5, align 8
  store ptr %1, ptr %6, align 8
  store ptr %2, ptr %7, align 8
  %15 = load ptr, ptr %5, align 8
  %16 = call i32 @Cudd_ReadSize(ptr noundef %15)
  store i32 %16, ptr %12, align 4
  %17 = load ptr, ptr %5, align 8
  %18 = getelementptr inbounds %struct.DdManager, ptr %17, i32 0, i32 1
  %19 = load ptr, ptr %18, align 8
  %20 = ptrtoint ptr %19 to i64
  %21 = xor i64 %20, 1
  %22 = inttoptr i64 %21 to ptr
  store ptr %22, ptr %13, align 8
  %23 = load i32, ptr %12, align 4
  %24 = sub nsw i32 %23, 1
  store i32 %24, ptr %11, align 4
  br label %25

25:                                               ; preds = %33, %3
  %26 = load i32, ptr %11, align 4
  %27 = icmp sge i32 %26, 0
  br i1 %27, label %28, label %36

28:                                               ; preds = %25
  %29 = load ptr, ptr %7, align 8
  %30 = load i32, ptr %11, align 4
  %31 = sext i32 %30 to i64
  %32 = getelementptr inbounds i32, ptr %29, i64 %31
  store i32 2, ptr %32, align 4
  br label %33

33:                                               ; preds = %28
  %34 = load i32, ptr %11, align 4
  %35 = add nsw i32 %34, -1
  store i32 %35, ptr %11, align 4
  br label %25, !llvm.loop !9

36:                                               ; preds = %25
  %37 = load ptr, ptr %6, align 8
  store ptr %37, ptr %8, align 8
  br label %38

38:                                               ; preds = %76, %36
  %39 = load ptr, ptr %8, align 8
  %40 = ptrtoint ptr %39 to i64
  %41 = and i64 %40, -2
  %42 = inttoptr i64 %41 to ptr
  %43 = getelementptr inbounds %struct.DdNode, ptr %42, i32 0, i32 0
  %44 = load i32, ptr %43, align 8
  %45 = icmp eq i32 %44, 2147483647
  %46 = xor i1 %45, true
  br i1 %46, label %47, label %77

47:                                               ; preds = %38
  %48 = load ptr, ptr %8, align 8
  %49 = ptrtoint ptr %48 to i64
  %50 = and i64 %49, -2
  %51 = inttoptr i64 %50 to ptr
  %52 = getelementptr inbounds %struct.DdNode, ptr %51, i32 0, i32 0
  %53 = load i32, ptr %52, align 8
  store i32 %53, ptr %14, align 4
  %54 = load ptr, ptr %8, align 8
  call void @cuddGetBranches(ptr noundef %54, ptr noundef %9, ptr noundef %10)
  %55 = load ptr, ptr %9, align 8
  %56 = load ptr, ptr %13, align 8
  %57 = icmp eq ptr %55, %56
  br i1 %57, label %58, label %64

58:                                               ; preds = %47
  %59 = load ptr, ptr %7, align 8
  %60 = load i32, ptr %14, align 4
  %61 = sext i32 %60 to i64
  %62 = getelementptr inbounds i32, ptr %59, i64 %61
  store i32 0, ptr %62, align 4
  %63 = load ptr, ptr %10, align 8
  store ptr %63, ptr %8, align 8
  br label %76

64:                                               ; preds = %47
  %65 = load ptr, ptr %10, align 8
  %66 = load ptr, ptr %13, align 8
  %67 = icmp eq ptr %65, %66
  br i1 %67, label %68, label %74

68:                                               ; preds = %64
  %69 = load ptr, ptr %7, align 8
  %70 = load i32, ptr %14, align 4
  %71 = sext i32 %70 to i64
  %72 = getelementptr inbounds i32, ptr %69, i64 %71
  store i32 1, ptr %72, align 4
  %73 = load ptr, ptr %9, align 8
  store ptr %73, ptr %8, align 8
  br label %75

74:                                               ; preds = %64
  store i32 0, ptr %4, align 4
  br label %83

75:                                               ; preds = %68
  br label %76

76:                                               ; preds = %75, %58
  br label %38, !llvm.loop !10

77:                                               ; preds = %38
  %78 = load ptr, ptr %8, align 8
  %79 = load ptr, ptr %13, align 8
  %80 = icmp eq ptr %78, %79
  br i1 %80, label %81, label %82

81:                                               ; preds = %77
  store i32 0, ptr %4, align 4
  br label %83

82:                                               ; preds = %77
  store i32 1, ptr %4, align 4
  br label %83

83:                                               ; preds = %82, %81, %74
  %84 = load i32, ptr %4, align 4
  ret i32 %84
}

; Function Attrs: nounwind uwtable
define i32 @Cudd_NextPrime(ptr noundef %0, ptr noundef %1) #0 {
  %3 = alloca i32, align 4
  %4 = alloca ptr, align 8
  %5 = alloca ptr, align 8
  %6 = alloca ptr, align 8
  %7 = alloca ptr, align 8
  %8 = alloca ptr, align 8
  %9 = alloca ptr, align 8
  %10 = alloca i32, align 4
  %11 = alloca i32, align 4
  store ptr %0, ptr %4, align 8
  store ptr %1, ptr %5, align 8
  %12 = load ptr, ptr %4, align 8
  %13 = getelementptr inbounds %struct.DdGen, ptr %12, i32 0, i32 0
  %14 = load ptr, ptr %13, align 8
  store ptr %14, ptr %9, align 8
  %15 = load ptr, ptr %4, align 8
  %16 = getelementptr inbounds %struct.DdGen, ptr %15, i32 0, i32 5
  %17 = load ptr, ptr %16, align 8
  %18 = load ptr, ptr %9, align 8
  %19 = call ptr @Cudd_ReadLogicZero(ptr noundef %18)
  %20 = icmp eq ptr %17, %19
  br i1 %20, label %21, label %24

21:                                               ; preds = %2
  %22 = load ptr, ptr %4, align 8
  %23 = getelementptr inbounds %struct.DdGen, ptr %22, i32 0, i32 2
  store i32 0, ptr %23, align 4
  br label %117

24:                                               ; preds = %2
  %25 = load ptr, ptr %9, align 8
  %26 = load ptr, ptr %4, align 8
  %27 = getelementptr inbounds %struct.DdGen, ptr %26, i32 0, i32 5
  %28 = load ptr, ptr %27, align 8
  %29 = call ptr @Cudd_LargestCube(ptr noundef %25, ptr noundef %28, ptr noundef %10)
  store ptr %29, ptr %6, align 8
  %30 = load ptr, ptr %6, align 8
  %31 = icmp eq ptr %30, null
  br i1 %31, label %32, label %35

32:                                               ; preds = %24
  %33 = load ptr, ptr %4, align 8
  %34 = getelementptr inbounds %struct.DdGen, ptr %33, i32 0, i32 2
  store i32 0, ptr %34, align 4
  store i32 0, ptr %3, align 4
  br label %129

35:                                               ; preds = %24
  %36 = load ptr, ptr %6, align 8
  %37 = ptrtoint ptr %36 to i64
  %38 = and i64 %37, -2
  %39 = inttoptr i64 %38 to ptr
  %40 = getelementptr inbounds %struct.DdNode, ptr %39, i32 0, i32 1
  %41 = load i32, ptr %40, align 4
  %42 = add i32 %41, 1
  store i32 %42, ptr %40, align 4
  %43 = load ptr, ptr %9, align 8
  %44 = load ptr, ptr %6, align 8
  %45 = load ptr, ptr %4, align 8
  %46 = getelementptr inbounds %struct.DdGen, ptr %45, i32 0, i32 3
  %47 = getelementptr inbounds %struct.anon.1, ptr %46, i32 0, i32 1
  %48 = load ptr, ptr %47, align 8
  %49 = call ptr @Cudd_bddMakePrime(ptr noundef %43, ptr noundef %44, ptr noundef %48)
  store ptr %49, ptr %7, align 8
  %50 = load ptr, ptr %7, align 8
  %51 = icmp eq ptr %50, null
  br i1 %51, label %52, label %57

52:                                               ; preds = %35
  %53 = load ptr, ptr %9, align 8
  %54 = load ptr, ptr %6, align 8
  call void @Cudd_RecursiveDeref(ptr noundef %53, ptr noundef %54)
  %55 = load ptr, ptr %4, align 8
  %56 = getelementptr inbounds %struct.DdGen, ptr %55, i32 0, i32 2
  store i32 0, ptr %56, align 4
  store i32 0, ptr %3, align 4
  br label %129

57:                                               ; preds = %35
  %58 = load ptr, ptr %7, align 8
  %59 = ptrtoint ptr %58 to i64
  %60 = and i64 %59, -2
  %61 = inttoptr i64 %60 to ptr
  %62 = getelementptr inbounds %struct.DdNode, ptr %61, i32 0, i32 1
  %63 = load i32, ptr %62, align 4
  %64 = add i32 %63, 1
  store i32 %64, ptr %62, align 4
  %65 = load ptr, ptr %9, align 8
  %66 = load ptr, ptr %6, align 8
  call void @Cudd_RecursiveDeref(ptr noundef %65, ptr noundef %66)
  %67 = load ptr, ptr %9, align 8
  %68 = load ptr, ptr %4, align 8
  %69 = getelementptr inbounds %struct.DdGen, ptr %68, i32 0, i32 5
  %70 = load ptr, ptr %69, align 8
  %71 = load ptr, ptr %7, align 8
  %72 = ptrtoint ptr %71 to i64
  %73 = xor i64 %72, 1
  %74 = inttoptr i64 %73 to ptr
  %75 = call ptr @Cudd_bddAnd(ptr noundef %67, ptr noundef %70, ptr noundef %74)
  store ptr %75, ptr %8, align 8
  %76 = load ptr, ptr %8, align 8
  %77 = icmp eq ptr %76, null
  br i1 %77, label %78, label %83

78:                                               ; preds = %57
  %79 = load ptr, ptr %9, align 8
  %80 = load ptr, ptr %7, align 8
  call void @Cudd_RecursiveDeref(ptr noundef %79, ptr noundef %80)
  %81 = load ptr, ptr %4, align 8
  %82 = getelementptr inbounds %struct.DdGen, ptr %81, i32 0, i32 2
  store i32 0, ptr %82, align 4
  store i32 0, ptr %3, align 4
  br label %129

83:                                               ; preds = %57
  %84 = load ptr, ptr %8, align 8
  %85 = ptrtoint ptr %84 to i64
  %86 = and i64 %85, -2
  %87 = inttoptr i64 %86 to ptr
  %88 = getelementptr inbounds %struct.DdNode, ptr %87, i32 0, i32 1
  %89 = load i32, ptr %88, align 4
  %90 = add i32 %89, 1
  store i32 %90, ptr %88, align 4
  %91 = load ptr, ptr %9, align 8
  %92 = load ptr, ptr %4, align 8
  %93 = getelementptr inbounds %struct.DdGen, ptr %92, i32 0, i32 5
  %94 = load ptr, ptr %93, align 8
  call void @Cudd_RecursiveDeref(ptr noundef %91, ptr noundef %94)
  %95 = load ptr, ptr %8, align 8
  %96 = load ptr, ptr %4, align 8
  %97 = getelementptr inbounds %struct.DdGen, ptr %96, i32 0, i32 5
  store ptr %95, ptr %97, align 8
  %98 = load ptr, ptr %9, align 8
  %99 = load ptr, ptr %7, align 8
  %100 = load ptr, ptr %4, align 8
  %101 = getelementptr inbounds %struct.DdGen, ptr %100, i32 0, i32 3
  %102 = getelementptr inbounds %struct.anon.1, ptr %101, i32 0, i32 0
  %103 = load ptr, ptr %102, align 8
  %104 = call i32 @Cudd_BddToCubeArray(ptr noundef %98, ptr noundef %99, ptr noundef %103)
  store i32 %104, ptr %11, align 4
  %105 = load i32, ptr %11, align 4
  %106 = icmp eq i32 %105, 0
  br i1 %106, label %107, label %112

107:                                              ; preds = %83
  %108 = load ptr, ptr %9, align 8
  %109 = load ptr, ptr %7, align 8
  call void @Cudd_RecursiveDeref(ptr noundef %108, ptr noundef %109)
  %110 = load ptr, ptr %4, align 8
  %111 = getelementptr inbounds %struct.DdGen, ptr %110, i32 0, i32 2
  store i32 0, ptr %111, align 4
  store i32 0, ptr %3, align 4
  br label %129

112:                                              ; preds = %83
  %113 = load ptr, ptr %9, align 8
  %114 = load ptr, ptr %7, align 8
  call void @Cudd_RecursiveDeref(ptr noundef %113, ptr noundef %114)
  %115 = load ptr, ptr %4, align 8
  %116 = getelementptr inbounds %struct.DdGen, ptr %115, i32 0, i32 2
  store i32 1, ptr %116, align 4
  br label %117

117:                                              ; preds = %112, %21
  %118 = load ptr, ptr %4, align 8
  %119 = getelementptr inbounds %struct.DdGen, ptr %118, i32 0, i32 2
  %120 = load i32, ptr %119, align 4
  %121 = icmp eq i32 %120, 0
  br i1 %121, label %122, label %123

122:                                              ; preds = %117
  store i32 0, ptr %3, align 4
  br label %129

123:                                              ; preds = %117
  %124 = load ptr, ptr %4, align 8
  %125 = getelementptr inbounds %struct.DdGen, ptr %124, i32 0, i32 3
  %126 = getelementptr inbounds %struct.anon.1, ptr %125, i32 0, i32 0
  %127 = load ptr, ptr %126, align 8
  %128 = load ptr, ptr %5, align 8
  store ptr %127, ptr %128, align 8
  store i32 1, ptr %3, align 4
  br label %129

129:                                              ; preds = %123, %122, %107, %78, %52, %32
  %130 = load i32, ptr %3, align 4
  ret i32 %130
}