; Function Attrs: nounwind uwtable
define range(i32 0, 2) i32 @Cudd_NextPrime(ptr noundef captures(none) %0, ptr noundef writeonly captures(none) %1) local_unnamed_addr #0 {
  %3 = alloca ptr, align 8
  %4 = alloca ptr, align 8
  %5 = alloca i32, align 4
  %6 = load ptr, ptr %0, align 8
  %7 = getelementptr inbounds nuw i8, ptr %0, i64 48
  %8 = load ptr, ptr %7, align 8
  %9 = tail call ptr @Cudd_ReadLogicZero(ptr noundef %6) #23
  %10 = icmp eq ptr %8, %9
  br i1 %10, label %.thread, label %12

.thread:                                          ; preds = %2
  %11 = getelementptr inbounds nuw i8, ptr %0, i64 12
  store i32 0, ptr %11, align 4
  br label %89

12:                                               ; preds = %2
  %13 = load ptr, ptr %7, align 8
  %14 = call ptr @Cudd_LargestCube(ptr noundef %6, ptr noundef %13, ptr noundef nonnull %5) #23
  %15 = icmp eq ptr %14, null
  br i1 %15, label %16, label %18

16:                                               ; preds = %12
  %17 = getelementptr inbounds nuw i8, ptr %0, i64 12
  store i32 0, ptr %17, align 4
  br label %89

18:                                               ; preds = %12
  %19 = ptrtoint ptr %14 to i64
  %20 = and i64 %19, -2
  %21 = inttoptr i64 %20 to ptr
  %22 = getelementptr inbounds nuw i8, ptr %21, i64 4
  %23 = load i32, ptr %22, align 4
  %24 = add i32 %23, 1
  store i32 %24, ptr %22, align 4
  %25 = getelementptr inbounds nuw i8, ptr %0, i64 16
  %26 = getelementptr inbounds nuw i8, ptr %0, i64 24
  %27 = load ptr, ptr %26, align 8
  %28 = call ptr @Cudd_bddMakePrime(ptr noundef %6, ptr noundef nonnull %14, ptr noundef %27) #23
  %29 = icmp eq ptr %28, null
  br i1 %29, label %30, label %32

30:                                               ; preds = %18
  call void @Cudd_RecursiveDeref(ptr noundef %6, ptr noundef nonnull %14) #23
  %31 = getelementptr inbounds nuw i8, ptr %0, i64 12
  store i32 0, ptr %31, align 4
  br label %89

32:                                               ; preds = %18
  %33 = ptrtoint ptr %28 to i64
  %34 = and i64 %33, -2
  %35 = inttoptr i64 %34 to ptr
  %36 = getelementptr inbounds nuw i8, ptr %35, i64 4
  %37 = load i32, ptr %36, align 4
  %38 = add i32 %37, 1
  store i32 %38, ptr %36, align 4
  call void @Cudd_RecursiveDeref(ptr noundef %6, ptr noundef nonnull %14) #23
  %39 = load ptr, ptr %7, align 8
  %40 = xor i64 %33, 1
  %41 = inttoptr i64 %40 to ptr
  %42 = call ptr @Cudd_bddAnd(ptr noundef %6, ptr noundef %39, ptr noundef %41) #23
  %43 = icmp eq ptr %42, null
  br i1 %43, label %44, label %46

44:                                               ; preds = %32
  call void @Cudd_RecursiveDeref(ptr noundef %6, ptr noundef nonnull %28) #23
  %45 = getelementptr inbounds nuw i8, ptr %0, i64 12
  store i32 0, ptr %45, align 4
  br label %89

46:                                               ; preds = %32
  %47 = ptrtoint ptr %42 to i64
  %48 = and i64 %47, -2
  %49 = inttoptr i64 %48 to ptr
  %50 = getelementptr inbounds nuw i8, ptr %49, i64 4
  %51 = load i32, ptr %50, align 4
  %52 = add i32 %51, 1
  store i32 %52, ptr %50, align 4
  %53 = load ptr, ptr %7, align 8
  call void @Cudd_RecursiveDeref(ptr noundef %6, ptr noundef %53) #23
  store ptr %42, ptr %7, align 8
  %54 = load ptr, ptr %25, align 8
  call void @llvm.lifetime.start.p0(i64 8, ptr nonnull %3)
  call void @llvm.lifetime.start.p0(i64 8, ptr nonnull %4)
  %55 = call i32 @Cudd_ReadSize(ptr noundef %6) #23
  %56 = getelementptr inbounds nuw i8, ptr %6, i64 40
  %57 = load ptr, ptr %56, align 8
  %58 = ptrtoint ptr %57 to i64
  %59 = xor i64 %58, 1
  %60 = inttoptr i64 %59 to ptr
  %61 = icmp sgt i32 %55, 0
  br i1 %61, label %.lr.ph.preheader.i, label %.preheader.i

.lr.ph.preheader.i:                               ; preds = %46
  %62 = zext nneg i32 %55 to i64
  br label %.lr.ph.i

.preheader.i:                                     ; preds = %.lr.ph.i, %46
  %63 = load i32, ptr %35, align 8
  %.not24.i = icmp eq i32 %63, 2147483647
  br i1 %.not24.i, label %Cudd_BddToCubeArray.exit, label %.lr.ph26.i

.lr.ph.i:                                         ; preds = %.lr.ph.i, %.lr.ph.preheader.i
  %indvars.iv.i = phi i64 [ %62, %.lr.ph.preheader.i ], [ %indvars.iv.next.i, %.lr.ph.i ]
  %indvars.iv.next.i = add nsw i64 %indvars.iv.i, -1
  %64 = getelementptr inbounds nuw i32, ptr %54, i64 %indvars.iv.next.i
  store i32 2, ptr %64, align 4
  %65 = icmp samesign ugt i64 %indvars.iv.i, 1
  br i1 %65, label %.lr.ph.i, label %.preheader.i, !llvm.loop !7

.lr.ph26.i:                                       ; preds = %.preheader.i, %78
  %66 = phi i32 [ %82, %78 ], [ %63, %.preheader.i ]
  %.01925.i = phi ptr [ %.1.i, %78 ], [ %28, %.preheader.i ]
  call void @cuddGetBranches(ptr noundef %.01925.i, ptr noundef nonnull %3, ptr noundef nonnull %4) #23
  %67 = load ptr, ptr %3, align 8
  %68 = icmp eq ptr %67, %60
  br i1 %68, label %69, label %72

69:                                               ; preds = %.lr.ph26.i
  %70 = sext i32 %66 to i64
  %71 = getelementptr inbounds i32, ptr %54, i64 %70
  store i32 0, ptr %71, align 4
  %.1.pre.i = load ptr, ptr %4, align 8
  br label %78

72:                                               ; preds = %.lr.ph26.i
  %73 = load ptr, ptr %4, align 8
  %74 = icmp eq ptr %73, %60
  br i1 %74, label %75, label %Cudd_BddToCubeArray.exit.thread

Cudd_BddToCubeArray.exit.thread:                  ; preds = %72
  call void @llvm.lifetime.end.p0(i64 8, ptr nonnull %3)
  call void @llvm.lifetime.end.p0(i64 8, ptr nonnull %4)
  br label %83

75:                                               ; preds = %72
  %76 = sext i32 %66 to i64
  %77 = getelementptr inbounds i32, ptr %54, i64 %76
  store i32 1, ptr %77, align 4
  br label %78

78:                                               ; preds = %75, %69
  %.1.i = phi ptr [ %.1.pre.i, %69 ], [ %67, %75 ]
  %79 = ptrtoint ptr %.1.i to i64
  %80 = and i64 %79, -2
  %81 = inttoptr i64 %80 to ptr
  %82 = load i32, ptr %81, align 8
  %.not.i = icmp eq i32 %82, 2147483647
  br i1 %.not.i, label %Cudd_BddToCubeArray.exit, label %.lr.ph26.i, !llvm.loop !8

Cudd_BddToCubeArray.exit:                         ; preds = %78, %.preheader.i
  %.019.lcssa.i = phi ptr [ %28, %.preheader.i ], [ %.1.i, %78 ]
  %.not = icmp eq ptr %.019.lcssa.i, %60
  call void @llvm.lifetime.end.p0(i64 8, ptr nonnull %3)
  call void @llvm.lifetime.end.p0(i64 8, ptr nonnull %4)
  br i1 %.not, label %83, label %85

83:                                               ; preds = %Cudd_BddToCubeArray.exit.thread, %Cudd_BddToCubeArray.exit
  call void @Cudd_RecursiveDeref(ptr noundef %6, ptr noundef nonnull %28) #23
  %84 = getelementptr inbounds nuw i8, ptr %0, i64 12
  store i32 0, ptr %84, align 4
  br label %89

85:                                               ; preds = %Cudd_BddToCubeArray.exit
  call void @Cudd_RecursiveDeref(ptr noundef %6, ptr noundef nonnull %28) #23
  %86 = getelementptr inbounds nuw i8, ptr %0, i64 12
  store i32 1, ptr %86, align 4
  %87 = getelementptr inbounds nuw i8, ptr %0, i64 16
  %88 = load ptr, ptr %87, align 8
  store ptr %88, ptr %1, align 8
  br label %89

89:                                               ; preds = %.thread, %85, %83, %44, %30, %16
  %.0 = phi i32 [ 1, %85 ], [ 0, %16 ], [ 0, %30 ], [ 0, %44 ], [ 0, %83 ], [ 0, %.thread ]
  ret i32 %.0
}